ARM GAS  C:\Users\Giovanni\AppData\Local\Temp\cc7eIcaH.s 			page 1


   1              		.syntax unified
   2              		.cpu cortex-m3
   3              		.fpu softvfp
   4              		.eabi_attribute 20, 1
   5              		.eabi_attribute 21, 1
   6              		.eabi_attribute 23, 3
   7              		.eabi_attribute 24, 1
   8              		.eabi_attribute 25, 1
   9              		.eabi_attribute 26, 1
  10              		.eabi_attribute 30, 1
  11              		.eabi_attribute 34, 1
  12              		.eabi_attribute 18, 4
  13              		.thumb
  14              		.syntax unified
  15              		.file	"I2C_Interface.c"
  16              		.text
  17              	.Ltext0:
  18              		.cfi_sections	.debug_frame
  19              		.section	.text.I2C_Peripheral_Start,"ax",%progbits
  20              		.align	2
  21              		.global	I2C_Peripheral_Start
  22              		.thumb
  23              		.thumb_func
  24              		.type	I2C_Peripheral_Start, %function
  25              	I2C_Peripheral_Start:
  26              	.LFB0:
  27              		.file 1 "I2C_Interface.c"
   1:I2C_Interface.c **** /* ========================================
   2:I2C_Interface.c ****  *
   3:I2C_Interface.c ****  * Politecnico di Milano 
   4:I2C_Interface.c ****  * LTEBS A.Y. 2023/24 
   5:I2C_Interface.c ****  * Mentasti, Pettenella, Salama, Vacca
   6:I2C_Interface.c ****  *
   7:I2C_Interface.c ****  * ========================================
   8:I2C_Interface.c **** */
   9:I2C_Interface.c **** 
  10:I2C_Interface.c **** /*
  11:I2C_Interface.c **** * This file includes all the required source code to interface
  12:I2C_Interface.c **** * the I2C peripheral.
  13:I2C_Interface.c **** */
  14:I2C_Interface.c **** 
  15:I2C_Interface.c **** /**
  16:I2C_Interface.c **** *   \brief Value returned if device present on I2C bus.
  17:I2C_Interface.c **** */
  18:I2C_Interface.c **** #ifndef DEVICE_CONNECTED
  19:I2C_Interface.c ****     #define DEVICE_CONNECTED 1
  20:I2C_Interface.c **** #endif
  21:I2C_Interface.c **** 
  22:I2C_Interface.c **** /**
  23:I2C_Interface.c **** *   \brief Value returned if device not present on I2C bus.
  24:I2C_Interface.c **** */
  25:I2C_Interface.c **** #ifndef DEVICE_UNCONNECTED
  26:I2C_Interface.c ****     #define DEVICE_UNCONNECTED 0
  27:I2C_Interface.c **** #endif
  28:I2C_Interface.c **** 
  29:I2C_Interface.c **** #include "I2C_Interface.h" 
  30:I2C_Interface.c **** #include "I2C_Master.h"
ARM GAS  C:\Users\Giovanni\AppData\Local\Temp\cc7eIcaH.s 			page 2


  31:I2C_Interface.c **** 
  32:I2C_Interface.c **** ErrorCode I2C_Peripheral_Start(void) 
  33:I2C_Interface.c **** {
  28              		.loc 1 33 0
  29              		.cfi_startproc
  30              		@ args = 0, pretend = 0, frame = 0
  31              		@ frame_needed = 0, uses_anonymous_args = 0
  32 0000 08B5     		push	{r3, lr}
  33              		.cfi_def_cfa_offset 8
  34              		.cfi_offset 3, -8
  35              		.cfi_offset 14, -4
  34:I2C_Interface.c ****     // Start I2C peripheral
  35:I2C_Interface.c ****     I2C_Master_Start();  
  36              		.loc 1 35 0
  37 0002 FFF7FEFF 		bl	I2C_Master_Start
  38              	.LVL0:
  36:I2C_Interface.c ****     
  37:I2C_Interface.c ****     // Return no error since start function does not return any error
  38:I2C_Interface.c ****     return NO_ERROR;
  39:I2C_Interface.c **** }
  39              		.loc 1 39 0
  40 0006 0020     		movs	r0, #0
  41 0008 08BD     		pop	{r3, pc}
  42              		.cfi_endproc
  43              	.LFE0:
  44              		.size	I2C_Peripheral_Start, .-I2C_Peripheral_Start
  45 000a 00BF     		.section	.text.I2C_Peripheral_Stop,"ax",%progbits
  46              		.align	2
  47              		.global	I2C_Peripheral_Stop
  48              		.thumb
  49              		.thumb_func
  50              		.type	I2C_Peripheral_Stop, %function
  51              	I2C_Peripheral_Stop:
  52              	.LFB1:
  40:I2C_Interface.c **** 
  41:I2C_Interface.c **** // --------------------------------------------------------------------------------- //
  42:I2C_Interface.c **** 
  43:I2C_Interface.c **** ErrorCode I2C_Peripheral_Stop(void)
  44:I2C_Interface.c **** {
  53              		.loc 1 44 0
  54              		.cfi_startproc
  55              		@ args = 0, pretend = 0, frame = 0
  56              		@ frame_needed = 0, uses_anonymous_args = 0
  57 0000 08B5     		push	{r3, lr}
  58              		.cfi_def_cfa_offset 8
  59              		.cfi_offset 3, -8
  60              		.cfi_offset 14, -4
  45:I2C_Interface.c ****     // Stop I2C peripheral
  46:I2C_Interface.c ****     I2C_Master_Stop();
  61              		.loc 1 46 0
  62 0002 FFF7FEFF 		bl	I2C_Master_Stop
  63              	.LVL1:
  47:I2C_Interface.c ****     // Return no error since stop function does not return any error
  48:I2C_Interface.c ****     return NO_ERROR;
  49:I2C_Interface.c **** }
  64              		.loc 1 49 0
  65 0006 0020     		movs	r0, #0
ARM GAS  C:\Users\Giovanni\AppData\Local\Temp\cc7eIcaH.s 			page 3


  66 0008 08BD     		pop	{r3, pc}
  67              		.cfi_endproc
  68              	.LFE1:
  69              		.size	I2C_Peripheral_Stop, .-I2C_Peripheral_Stop
  70 000a 00BF     		.section	.text.I2C_Peripheral_ReadRegister,"ax",%progbits
  71              		.align	2
  72              		.global	I2C_Peripheral_ReadRegister
  73              		.thumb
  74              		.thumb_func
  75              		.type	I2C_Peripheral_ReadRegister, %function
  76              	I2C_Peripheral_ReadRegister:
  77              	.LFB2:
  50:I2C_Interface.c **** 
  51:I2C_Interface.c **** // --------------------------------------------------------------------------------- //
  52:I2C_Interface.c **** // I2C_Peripheral_ReadRegister funzione per leggere registri
  53:I2C_Interface.c **** // richiede indirizzo dello slave, indirizzo del registro interno allo slave e variabile in cui ver
  54:I2C_Interface.c **** ErrorCode I2C_Peripheral_ReadRegister(uint8_t device_address, 
  55:I2C_Interface.c ****                                       uint8_t register_address,
  56:I2C_Interface.c ****                                       int8_t* data) {
  78              		.loc 1 56 0
  79              		.cfi_startproc
  80              		@ args = 0, pretend = 0, frame = 0
  81              		@ frame_needed = 0, uses_anonymous_args = 0
  82              	.LVL2:
  83 0000 F8B5     		push	{r3, r4, r5, r6, r7, lr}
  84              		.cfi_def_cfa_offset 24
  85              		.cfi_offset 3, -24
  86              		.cfi_offset 4, -20
  87              		.cfi_offset 5, -16
  88              		.cfi_offset 6, -12
  89              		.cfi_offset 7, -8
  90              		.cfi_offset 14, -4
  91 0002 0646     		mov	r6, r0
  92 0004 0D46     		mov	r5, r1
  93 0006 1746     		mov	r7, r2
  57:I2C_Interface.c ****     // ad ogni if controllo che non si sia verificato errore
  58:I2C_Interface.c ****     // Start Condition
  59:I2C_Interface.c ****     //I2C_Master_MasterSendStart() manda uno start signal al device interpellato e assieme ad esso 
  60:I2C_Interface.c ****     uint8_t error = I2C_Master_MasterSendStart(device_address, I2C_Master_WRITE_XFER_MODE);        
  94              		.loc 1 60 0
  95 0008 0021     		movs	r1, #0
  96              	.LVL3:
  97 000a FFF7FEFF 		bl	I2C_Master_MasterSendStart
  98              	.LVL4:
  61:I2C_Interface.c ****     if (error == I2C_Master_MSTR_NO_ERROR)
  99              		.loc 1 61 0
 100 000e 0446     		mov	r4, r0
 101 0010 68B9     		cbnz	r0, .L6
  62:I2C_Interface.c ****     {
  63:I2C_Interface.c ****         //Write the register address to be read
  64:I2C_Interface.c ****         //I2C_Master_MasterWriteByte() scrive indirizzo del registro
  65:I2C_Interface.c ****         error = I2C_Master_MasterWriteByte(register_address);
 102              		.loc 1 65 0
 103 0012 2846     		mov	r0, r5
 104              	.LVL5:
 105 0014 FFF7FEFF 		bl	I2C_Master_MasterWriteByte
 106              	.LVL6:
ARM GAS  C:\Users\Giovanni\AppData\Local\Temp\cc7eIcaH.s 			page 4


  66:I2C_Interface.c ****         if (error == I2C_Master_MSTR_NO_ERROR)
 107              		.loc 1 66 0
 108 0018 0446     		mov	r4, r0
 109 001a 40B9     		cbnz	r0, .L6
  67:I2C_Interface.c ****         {
  68:I2C_Interface.c ****             // Send a restart condition
  69:I2C_Interface.c ****             // mando il repeated start
  70:I2C_Interface.c ****             error = I2C_Master_MasterSendRestart(device_address, I2C_Master_READ_XFER_MODE);
 110              		.loc 1 70 0
 111 001c 0121     		movs	r1, #1
 112 001e 3046     		mov	r0, r6
 113              	.LVL7:
 114 0020 FFF7FEFF 		bl	I2C_Master_MasterSendRestart
 115              	.LVL8:
  71:I2C_Interface.c ****             if (error == I2C_Master_MSTR_NO_ERROR)
 116              		.loc 1 71 0
 117 0024 0446     		mov	r4, r0
 118 0026 10B9     		cbnz	r0, .L6
  72:I2C_Interface.c ****             {   //leggo il byte salvandolo all'interno della variabile di cui ho passato il puntato
  73:I2C_Interface.c ****                 *data = I2C_Master_MasterReadByte(I2C_Master_NAK_DATA);
 119              		.loc 1 73 0
 120 0028 FFF7FEFF 		bl	I2C_Master_MasterReadByte
 121              	.LVL9:
 122 002c 3870     		strb	r0, [r7]
 123              	.L6:
 124              	.LVL10:
  74:I2C_Interface.c ****             }
  75:I2C_Interface.c ****         }
  76:I2C_Interface.c ****     }
  77:I2C_Interface.c ****     // Stop Comunication
  78:I2C_Interface.c ****     I2C_Master_MasterSendStop();
 125              		.loc 1 78 0
 126 002e FFF7FEFF 		bl	I2C_Master_MasterSendStop
 127              	.LVL11:
  79:I2C_Interface.c ****     //Return
  80:I2C_Interface.c ****     return error ? ERROR : NO_ERROR;
  81:I2C_Interface.c ****     // ritorna errore se funzione e` andata incontro ad errore durante lo svolgimento, questo corri
  82:I2C_Interface.c ****     // no error corrisponde invece a acknowledgement
  83:I2C_Interface.c **** }
 128              		.loc 1 83 0
 129 0032 201C     		adds	r0, r4, #0
 130 0034 18BF     		it	ne
 131 0036 0120     		movne	r0, #1
 132 0038 F8BD     		pop	{r3, r4, r5, r6, r7, pc}
 133              		.cfi_endproc
 134              	.LFE2:
 135              		.size	I2C_Peripheral_ReadRegister, .-I2C_Peripheral_ReadRegister
 136 003a 00BF     		.section	.text.I2C_Peripheral_UReadRegister,"ax",%progbits
 137              		.align	2
 138              		.global	I2C_Peripheral_UReadRegister
 139              		.thumb
 140              		.thumb_func
 141              		.type	I2C_Peripheral_UReadRegister, %function
 142              	I2C_Peripheral_UReadRegister:
 143              	.LFB3:
  84:I2C_Interface.c ****                                     
  85:I2C_Interface.c **** // --------------------------------------------------------------------------------- //
ARM GAS  C:\Users\Giovanni\AppData\Local\Temp\cc7eIcaH.s 			page 5


  86:I2C_Interface.c **** ErrorCode I2C_Peripheral_UReadRegister(uint8_t device_address, 
  87:I2C_Interface.c ****                                       uint8_t register_address,
  88:I2C_Interface.c ****                                       uint8_t* data) {
 144              		.loc 1 88 0
 145              		.cfi_startproc
 146              		@ args = 0, pretend = 0, frame = 0
 147              		@ frame_needed = 0, uses_anonymous_args = 0
 148              	.LVL12:
 149 0000 F8B5     		push	{r3, r4, r5, r6, r7, lr}
 150              		.cfi_def_cfa_offset 24
 151              		.cfi_offset 3, -24
 152              		.cfi_offset 4, -20
 153              		.cfi_offset 5, -16
 154              		.cfi_offset 6, -12
 155              		.cfi_offset 7, -8
 156              		.cfi_offset 14, -4
 157 0002 0646     		mov	r6, r0
 158 0004 0D46     		mov	r5, r1
 159 0006 1746     		mov	r7, r2
  89:I2C_Interface.c ****     // ad ogni if controllo che non si sia verificato errore
  90:I2C_Interface.c ****     // Start Condition
  91:I2C_Interface.c ****     //I2C_Master_MasterSendStart() manda uno start signal al device interpellato e assieme ad esso 
  92:I2C_Interface.c ****     uint8_t error = I2C_Master_MasterSendStart(device_address, I2C_Master_WRITE_XFER_MODE);        
 160              		.loc 1 92 0
 161 0008 0021     		movs	r1, #0
 162              	.LVL13:
 163 000a FFF7FEFF 		bl	I2C_Master_MasterSendStart
 164              	.LVL14:
  93:I2C_Interface.c ****     if (error == I2C_Master_MSTR_NO_ERROR)
 165              		.loc 1 93 0
 166 000e 0446     		mov	r4, r0
 167 0010 68B9     		cbnz	r0, .L9
  94:I2C_Interface.c ****     {
  95:I2C_Interface.c ****         //Write the register address to be read
  96:I2C_Interface.c ****         //I2C_Master_MasterWriteByte() scrive indirizzo del registro
  97:I2C_Interface.c ****         error = I2C_Master_MasterWriteByte(register_address);
 168              		.loc 1 97 0
 169 0012 2846     		mov	r0, r5
 170              	.LVL15:
 171 0014 FFF7FEFF 		bl	I2C_Master_MasterWriteByte
 172              	.LVL16:
  98:I2C_Interface.c ****         if (error == I2C_Master_MSTR_NO_ERROR)
 173              		.loc 1 98 0
 174 0018 0446     		mov	r4, r0
 175 001a 40B9     		cbnz	r0, .L9
  99:I2C_Interface.c ****         {
 100:I2C_Interface.c ****             // Send a restart condition
 101:I2C_Interface.c ****             // mando il repeated start
 102:I2C_Interface.c ****             error = I2C_Master_MasterSendRestart(device_address, I2C_Master_READ_XFER_MODE);
 176              		.loc 1 102 0
 177 001c 0121     		movs	r1, #1
 178 001e 3046     		mov	r0, r6
 179              	.LVL17:
 180 0020 FFF7FEFF 		bl	I2C_Master_MasterSendRestart
 181              	.LVL18:
 103:I2C_Interface.c ****             if (error == I2C_Master_MSTR_NO_ERROR)
 182              		.loc 1 103 0
ARM GAS  C:\Users\Giovanni\AppData\Local\Temp\cc7eIcaH.s 			page 6


 183 0024 0446     		mov	r4, r0
 184 0026 10B9     		cbnz	r0, .L9
 104:I2C_Interface.c ****             {   //leggo il byte salvandolo all'interno della variabile di cui ho passato il puntato
 105:I2C_Interface.c ****                 *data = I2C_Master_MasterReadByte(I2C_Master_NAK_DATA);
 185              		.loc 1 105 0
 186 0028 FFF7FEFF 		bl	I2C_Master_MasterReadByte
 187              	.LVL19:
 188 002c 3870     		strb	r0, [r7]
 189              	.L9:
 190              	.LVL20:
 106:I2C_Interface.c ****             }
 107:I2C_Interface.c ****         }
 108:I2C_Interface.c ****     }
 109:I2C_Interface.c ****     // Stop Comunication
 110:I2C_Interface.c ****     I2C_Master_MasterSendStop();
 191              		.loc 1 110 0
 192 002e FFF7FEFF 		bl	I2C_Master_MasterSendStop
 193              	.LVL21:
 111:I2C_Interface.c ****     //Return
 112:I2C_Interface.c ****     return error ? ERROR : NO_ERROR;
 113:I2C_Interface.c ****     // ritorna errore se funzione e` andata incontro ad errore durante lo svolgimento, questo corri
 114:I2C_Interface.c ****     // no error corrisponde invece a acknowledgement
 115:I2C_Interface.c **** }
 194              		.loc 1 115 0
 195 0032 201C     		adds	r0, r4, #0
 196 0034 18BF     		it	ne
 197 0036 0120     		movne	r0, #1
 198 0038 F8BD     		pop	{r3, r4, r5, r6, r7, pc}
 199              		.cfi_endproc
 200              	.LFE3:
 201              		.size	I2C_Peripheral_UReadRegister, .-I2C_Peripheral_UReadRegister
 202 003a 00BF     		.section	.text.I2C_Peripheral_ReadRegisterMulti,"ax",%progbits
 203              		.align	2
 204              		.global	I2C_Peripheral_ReadRegisterMulti
 205              		.thumb
 206              		.thumb_func
 207              		.type	I2C_Peripheral_ReadRegisterMulti, %function
 208              	I2C_Peripheral_ReadRegisterMulti:
 209              	.LFB4:
 116:I2C_Interface.c ****                                     
 117:I2C_Interface.c **** // --------------------------------------------------------------------------------- //
 118:I2C_Interface.c **** 
 119:I2C_Interface.c **** ErrorCode I2C_Peripheral_ReadRegisterMulti(uint8_t device_address,
 120:I2C_Interface.c ****                                            uint8_t register_address,
 121:I2C_Interface.c ****                                            uint8_t register_count,
 122:I2C_Interface.c ****                                            uint8_t* data) {
 210              		.loc 1 122 0
 211              		.cfi_startproc
 212              		@ args = 0, pretend = 0, frame = 0
 213              		@ frame_needed = 0, uses_anonymous_args = 0
 214              	.LVL22:
 215 0000 2DE9F041 		push	{r4, r5, r6, r7, r8, lr}
 216              		.cfi_def_cfa_offset 24
 217              		.cfi_offset 4, -24
 218              		.cfi_offset 5, -20
 219              		.cfi_offset 6, -16
 220              		.cfi_offset 7, -12
ARM GAS  C:\Users\Giovanni\AppData\Local\Temp\cc7eIcaH.s 			page 7


 221              		.cfi_offset 8, -8
 222              		.cfi_offset 14, -4
 223 0004 8046     		mov	r8, r0
 224 0006 0C46     		mov	r4, r1
 225 0008 1646     		mov	r6, r2
 226 000a 1F46     		mov	r7, r3
 123:I2C_Interface.c ****     
 124:I2C_Interface.c ****     // Send start condition
 125:I2C_Interface.c ****     uint8_t error = I2C_Master_MasterSendStart(device_address, I2C_Master_WRITE_XFER_MODE);
 227              		.loc 1 125 0
 228 000c 0021     		movs	r1, #0
 229              	.LVL23:
 230 000e FFF7FEFF 		bl	I2C_Master_MasterSendStart
 231              	.LVL24:
 126:I2C_Interface.c ****     if (error == I2C_Master_MSTR_NO_ERROR)
 232              		.loc 1 126 0
 233 0012 0546     		mov	r5, r0
 234 0014 F0B9     		cbnz	r0, .L12
 235              	.LVL25:
 127:I2C_Interface.c ****     {
 128:I2C_Interface.c ****         // Write register address to be read with the MSB = 1
 129:I2C_Interface.c ****         register_address |= 0x80; //Datasheet indication for multi read -- autoincrement
 130:I2C_Interface.c ****         error = I2C_Master_MasterWriteByte(register_address);
 236              		.loc 1 130 0
 237 0016 44F08000 		orr	r0, r4, #128
 238              	.LVL26:
 239 001a FFF7FEFF 		bl	I2C_Master_MasterWriteByte
 240              	.LVL27:
 131:I2C_Interface.c ****         if (error == I2C_Master_MSTR_NO_ERROR)
 241              		.loc 1 131 0
 242 001e 0546     		mov	r5, r0
 243 0020 C0B9     		cbnz	r0, .L12
 132:I2C_Interface.c ****         {
 133:I2C_Interface.c ****             // Send Restart condition
 134:I2C_Interface.c ****             error = I2C_Master_MasterSendRestart(device_address, I2C_Master_READ_XFER_MODE);
 244              		.loc 1 134 0
 245 0022 0121     		movs	r1, #1
 246 0024 4046     		mov	r0, r8
 247              	.LVL28:
 248 0026 FFF7FEFF 		bl	I2C_Master_MasterSendRestart
 249              	.LVL29:
 135:I2C_Interface.c ****             if (error == I2C_Master_MSTR_NO_ERROR)
 250              		.loc 1 135 0
 251 002a 0546     		mov	r5, r0
 252 002c 50B1     		cbz	r0, .L15
 253 002e 11E0     		b	.L12
 254              	.LVL30:
 255              	.L14:
 256              	.LBB2:
 136:I2C_Interface.c ****             {
 137:I2C_Interface.c ****                 // Continue to read until we have register to be read
 138:I2C_Interface.c ****                 uint8_t counter = register_count;
 139:I2C_Interface.c ****                 while (counter > 1)
 140:I2C_Interface.c ****                 {
 141:I2C_Interface.c ****                     data[register_count - counter] = 
 257              		.loc 1 141 0
 258 0030 C4EB0608 		rsb	r8, r4, r6
ARM GAS  C:\Users\Giovanni\AppData\Local\Temp\cc7eIcaH.s 			page 8


 142:I2C_Interface.c ****                         I2C_Master_MasterReadByte(I2C_Master_ACK_DATA);
 259              		.loc 1 142 0
 260 0034 0120     		movs	r0, #1
 261 0036 FFF7FEFF 		bl	I2C_Master_MasterReadByte
 262              	.LVL31:
 141:I2C_Interface.c ****                         I2C_Master_MasterReadByte(I2C_Master_ACK_DATA);
 263              		.loc 1 141 0
 264 003a 07F80800 		strb	r0, [r7, r8]
 143:I2C_Interface.c ****                         counter --;
 265              		.loc 1 143 0
 266 003e 013C     		subs	r4, r4, #1
 267              	.LVL32:
 268 0040 E4B2     		uxtb	r4, r4
 269              	.LVL33:
 270 0042 00E0     		b	.L13
 271              	.LVL34:
 272              	.L15:
 273              	.LBE2:
 274 0044 3446     		mov	r4, r6
 275              	.LVL35:
 276              	.L13:
 277              	.LBB3:
 139:I2C_Interface.c ****                 {
 278              		.loc 1 139 0
 279 0046 012C     		cmp	r4, #1
 280 0048 F2D8     		bhi	.L14
 144:I2C_Interface.c ****                 }
 145:I2C_Interface.c ****                 // Read last data without acknolowledgment
 146:I2C_Interface.c ****                 data[register_count - 1] = 
 281              		.loc 1 146 0
 282 004a 013E     		subs	r6, r6, #1
 147:I2C_Interface.c ****                     I2C_Master_MasterReadByte(I2C_Master_NAK_DATA);
 283              		.loc 1 147 0
 284 004c 0020     		movs	r0, #0
 285 004e FFF7FEFF 		bl	I2C_Master_MasterReadByte
 286              	.LVL36:
 146:I2C_Interface.c ****                     I2C_Master_MasterReadByte(I2C_Master_NAK_DATA);
 287              		.loc 1 146 0
 288 0052 B855     		strb	r0, [r7, r6]
 289              	.LVL37:
 290              	.L12:
 291              	.LBE3:
 148:I2C_Interface.c ****             }
 149:I2C_Interface.c ****         }
 150:I2C_Interface.c ****     }
 151:I2C_Interface.c ****     // Send Stop Condition
 152:I2C_Interface.c ****     I2C_Master_MasterSendStop();
 292              		.loc 1 152 0
 293 0054 FFF7FEFF 		bl	I2C_Master_MasterSendStop
 294              	.LVL38:
 153:I2C_Interface.c ****     // Return Error Code
 154:I2C_Interface.c ****     return error ? ERROR : NO_ERROR;
 155:I2C_Interface.c ****                                               
 156:I2C_Interface.c **** }
 295              		.loc 1 156 0
 296 0058 281C     		adds	r0, r5, #0
 297 005a 18BF     		it	ne
ARM GAS  C:\Users\Giovanni\AppData\Local\Temp\cc7eIcaH.s 			page 9


 298 005c 0120     		movne	r0, #1
 299 005e BDE8F081 		pop	{r4, r5, r6, r7, r8, pc}
 300              		.cfi_endproc
 301              	.LFE4:
 302              		.size	I2C_Peripheral_ReadRegisterMulti, .-I2C_Peripheral_ReadRegisterMulti
 303 0062 00BF     		.section	.text.I2C_Peripheral_WriteRegister,"ax",%progbits
 304              		.align	2
 305              		.global	I2C_Peripheral_WriteRegister
 306              		.thumb
 307              		.thumb_func
 308              		.type	I2C_Peripheral_WriteRegister, %function
 309              	I2C_Peripheral_WriteRegister:
 310              	.LFB5:
 157:I2C_Interface.c ****                                         
 158:I2C_Interface.c **** // --------------------------------------------------------------------------------- //
 159:I2C_Interface.c **** 
 160:I2C_Interface.c **** ErrorCode I2C_Peripheral_WriteRegister(uint8_t device_address,
 161:I2C_Interface.c ****                                        uint8_t register_address,
 162:I2C_Interface.c ****                                        uint8_t data) {
 311              		.loc 1 162 0
 312              		.cfi_startproc
 313              		@ args = 0, pretend = 0, frame = 0
 314              		@ frame_needed = 0, uses_anonymous_args = 0
 315              	.LVL39:
 316 0000 70B5     		push	{r4, r5, r6, lr}
 317              		.cfi_def_cfa_offset 16
 318              		.cfi_offset 4, -16
 319              		.cfi_offset 5, -12
 320              		.cfi_offset 6, -8
 321              		.cfi_offset 14, -4
 322 0002 0D46     		mov	r5, r1
 323 0004 1646     		mov	r6, r2
 163:I2C_Interface.c ****     
 164:I2C_Interface.c ****     
 165:I2C_Interface.c ****     // Send Start Condition
 166:I2C_Interface.c ****     uint8_t error = I2C_Master_MasterSendStart(device_address, I2C_Master_WRITE_XFER_MODE);
 324              		.loc 1 166 0
 325 0006 0021     		movs	r1, #0
 326              	.LVL40:
 327 0008 FFF7FEFF 		bl	I2C_Master_MasterSendStart
 328              	.LVL41:
 167:I2C_Interface.c ****     if (error == I2C_Master_MSTR_NO_ERROR)
 329              		.loc 1 167 0
 330 000c 0446     		mov	r4, r0
 331 000e 40B9     		cbnz	r0, .L18
 168:I2C_Interface.c ****     {
 169:I2C_Interface.c ****         //Write Register Address (to be overwritten)
 170:I2C_Interface.c ****         error = I2C_Master_MasterWriteByte(register_address);
 332              		.loc 1 170 0
 333 0010 2846     		mov	r0, r5
 334              	.LVL42:
 335 0012 FFF7FEFF 		bl	I2C_Master_MasterWriteByte
 336              	.LVL43:
 171:I2C_Interface.c ****         if (error == I2C_Master_MSTR_NO_ERROR)
 337              		.loc 1 171 0
 338 0016 0446     		mov	r4, r0
 339 0018 18B9     		cbnz	r0, .L18
ARM GAS  C:\Users\Giovanni\AppData\Local\Temp\cc7eIcaH.s 			page 10


 172:I2C_Interface.c ****         {
 173:I2C_Interface.c ****             // Write Byte
 174:I2C_Interface.c ****             error = I2C_Master_MasterWriteByte(data);
 340              		.loc 1 174 0
 341 001a 3046     		mov	r0, r6
 342              	.LVL44:
 343 001c FFF7FEFF 		bl	I2C_Master_MasterWriteByte
 344              	.LVL45:
 345 0020 0446     		mov	r4, r0
 346              	.LVL46:
 347              	.L18:
 175:I2C_Interface.c ****         }
 176:I2C_Interface.c ****     }
 177:I2C_Interface.c ****     // Close Communication
 178:I2C_Interface.c ****     I2C_Master_MasterSendStop();
 348              		.loc 1 178 0
 349 0022 FFF7FEFF 		bl	I2C_Master_MasterSendStop
 350              	.LVL47:
 179:I2C_Interface.c ****     // Return
 180:I2C_Interface.c ****     return error ? ERROR : NO_ERROR;
 181:I2C_Interface.c **** }
 351              		.loc 1 181 0
 352 0026 201C     		adds	r0, r4, #0
 353 0028 18BF     		it	ne
 354 002a 0120     		movne	r0, #1
 355 002c 70BD     		pop	{r4, r5, r6, pc}
 356              		.cfi_endproc
 357              	.LFE5:
 358              		.size	I2C_Peripheral_WriteRegister, .-I2C_Peripheral_WriteRegister
 359 002e 00BF     		.section	.text.I2C_Peripheral_IsDeviceConnected,"ax",%progbits
 360              		.align	2
 361              		.global	I2C_Peripheral_IsDeviceConnected
 362              		.thumb
 363              		.thumb_func
 364              		.type	I2C_Peripheral_IsDeviceConnected, %function
 365              	I2C_Peripheral_IsDeviceConnected:
 366              	.LFB6:
 182:I2C_Interface.c ****                                     
 183:I2C_Interface.c **** 
 184:I2C_Interface.c ****                                             
 185:I2C_Interface.c **** // --------------------------------------------------------------------------------- //
 186:I2C_Interface.c **** 
 187:I2C_Interface.c **** uint8_t I2C_Peripheral_IsDeviceConnected(uint8_t device_address) {
 367              		.loc 1 187 0
 368              		.cfi_startproc
 369              		@ args = 0, pretend = 0, frame = 0
 370              		@ frame_needed = 0, uses_anonymous_args = 0
 371              	.LVL48:
 372 0000 10B5     		push	{r4, lr}
 373              		.cfi_def_cfa_offset 8
 374              		.cfi_offset 4, -8
 375              		.cfi_offset 14, -4
 188:I2C_Interface.c ****     
 189:I2C_Interface.c ****     // Send a start condition followed by a stop condition
 190:I2C_Interface.c ****     uint8_t error = I2C_Master_MasterSendStart(device_address, I2C_Master_WRITE_XFER_MODE);
 376              		.loc 1 190 0
 377 0002 0021     		movs	r1, #0
ARM GAS  C:\Users\Giovanni\AppData\Local\Temp\cc7eIcaH.s 			page 11


 378 0004 FFF7FEFF 		bl	I2C_Master_MasterSendStart
 379              	.LVL49:
 380 0008 0446     		mov	r4, r0
 381              	.LVL50:
 191:I2C_Interface.c ****     I2C_Master_MasterSendStop();
 382              		.loc 1 191 0
 383 000a FFF7FEFF 		bl	I2C_Master_MasterSendStop
 384              	.LVL51:
 192:I2C_Interface.c ****     // If no error generated during stop, device is connected
 193:I2C_Interface.c ****     return (error == I2C_Master_MSTR_NO_ERROR ? DEVICE_CONNECTED : DEVICE_UNCONNECTED);
 194:I2C_Interface.c ****     
 195:I2C_Interface.c **** }
 385              		.loc 1 195 0
 386 000e B4FA84F0 		clz	r0, r4
 387 0012 4009     		lsrs	r0, r0, #5
 388 0014 10BD     		pop	{r4, pc}
 389              		.cfi_endproc
 390              	.LFE6:
 391              		.size	I2C_Peripheral_IsDeviceConnected, .-I2C_Peripheral_IsDeviceConnected
 392 0016 00BF     		.text
 393              	.Letext0:
 394              		.file 2 "d:\\programmi\\cypress\\psoc creator\\4.4\\psoc creator\\import\\gnu\\arm\\5.4.1\\arm-non
 395              		.file 3 "d:\\programmi\\cypress\\psoc creator\\4.4\\psoc creator\\import\\gnu\\arm\\5.4.1\\arm-non
 396              		.file 4 "ErrorCodes.h"
 397              		.file 5 "Generated_Source\\PSoC5/I2C_Master.h"