ARM GAS  C:\Users\Giovanni\AppData\Local\Temp\ccpKukKf.s 			page 1


   1              		.syntax unified
   2              		.cpu cortex-m3
   3              		.fpu softvfp
   4              		.eabi_attribute 20, 1
   5              		.eabi_attribute 21, 1
   6              		.eabi_attribute 23, 3
   7              		.eabi_attribute 24, 1
   8              		.eabi_attribute 25, 1
   9              		.eabi_attribute 26, 1
  10              		.eabi_attribute 30, 1
  11              		.eabi_attribute 34, 1
  12              		.eabi_attribute 18, 4
  13              		.thumb
  14              		.syntax unified
  15              		.file	"InterruptRoutine.c"
  16              		.text
  17              	.Ltext0:
  18              		.cfi_sections	.debug_frame
  19              		.section	.text.Custom_ISR_RX,"ax",%progbits
  20              		.align	2
  21              		.global	Custom_ISR_RX
  22              		.thumb
  23              		.thumb_func
  24              		.type	Custom_ISR_RX, %function
  25              	Custom_ISR_RX:
  26              	.LFB64:
  27              		.file 1 "InterruptRoutine.c"
   1:InterruptRoutine.c **** 
   2:InterruptRoutine.c **** #include "InterruptRoutine.h"
   3:InterruptRoutine.c **** 
   4:InterruptRoutine.c **** 
   5:InterruptRoutine.c **** int16_t OutData;
   6:InterruptRoutine.c **** uint8_t Acc_Data[2];
   7:InterruptRoutine.c **** uint8_t ZYX_DA;
   8:InterruptRoutine.c **** uint8_t ZYX_OR;
   9:InterruptRoutine.c **** uint8_t status_reg;
  10:InterruptRoutine.c **** float g = 9.81;
  11:InterruptRoutine.c **** char ch_received;
  12:InterruptRoutine.c **** char start_stream;
  13:InterruptRoutine.c **** 
  14:InterruptRoutine.c **** CY_ISR(Custom_ISR_RX)
  15:InterruptRoutine.c **** {
  28              		.loc 1 15 0
  29              		.cfi_startproc
  30              		@ args = 0, pretend = 0, frame = 0
  31              		@ frame_needed = 0, uses_anonymous_args = 0
  32 0000 08B5     		push	{r3, lr}
  33              		.cfi_def_cfa_offset 8
  34              		.cfi_offset 3, -8
  35              		.cfi_offset 14, -4
  16:InterruptRoutine.c ****     ch_received = UART_1_GetChar(); 
  36              		.loc 1 16 0
  37 0002 FFF7FEFF 		bl	UART_1_GetChar
  38              	.LVL0:
  39 0006 2F4B     		ldr	r3, .L11
  40 0008 1870     		strb	r0, [r3]
  17:InterruptRoutine.c ****     switch(ch_received)
ARM GAS  C:\Users\Giovanni\AppData\Local\Temp\ccpKukKf.s 			page 2


  41              		.loc 1 17 0
  42 000a 6238     		subs	r0, r0, #98
  43 000c 1428     		cmp	r0, #20
  44 000e 58D8     		bhi	.L1
  45 0010 DFE800F0 		tbb	[pc, r0]
  46              	.L4:
  47 0014 27       		.byte	(.L3-.L4)/2
  48 0015 57       		.byte	(.L1-.L4)/2
  49 0016 4C       		.byte	(.L5-.L4)/2
  50 0017 57       		.byte	(.L1-.L4)/2
  51 0018 57       		.byte	(.L1-.L4)/2
  52 0019 57       		.byte	(.L1-.L4)/2
  53 001a 57       		.byte	(.L1-.L4)/2
  54 001b 57       		.byte	(.L1-.L4)/2
  55 001c 57       		.byte	(.L1-.L4)/2
  56 001d 57       		.byte	(.L1-.L4)/2
  57 001e 57       		.byte	(.L1-.L4)/2
  58 001f 57       		.byte	(.L1-.L4)/2
  59 0020 57       		.byte	(.L1-.L4)/2
  60 0021 3F       		.byte	(.L6-.L4)/2
  61 0022 57       		.byte	(.L1-.L4)/2
  62 0023 57       		.byte	(.L1-.L4)/2
  63 0024 57       		.byte	(.L1-.L4)/2
  64 0025 0B       		.byte	(.L7-.L4)/2
  65 0026 33       		.byte	(.L8-.L4)/2
  66 0027 57       		.byte	(.L1-.L4)/2
  67 0028 1A       		.byte	(.L9-.L4)/2
  68 0029 00       		.p2align 1
  69              	.L7:
  18:InterruptRoutine.c ****     {
  19:InterruptRoutine.c ****         case 's':
  20:InterruptRoutine.c ****             PWM_LED_Stop();
  70              		.loc 1 20 0
  71 002a FFF7FEFF 		bl	PWM_LED_Stop
  72              	.LVL1:
  21:InterruptRoutine.c ****             LED_G_Write(HIGH);
  73              		.loc 1 21 0
  74 002e 0120     		movs	r0, #1
  75 0030 FFF7FEFF 		bl	LED_G_Write
  76              	.LVL2:
  22:InterruptRoutine.c ****             LED_B_Write(LOW);
  77              		.loc 1 22 0
  78 0034 0020     		movs	r0, #0
  79 0036 FFF7FEFF 		bl	LED_B_Write
  80              	.LVL3:
  23:InterruptRoutine.c ****             BUZZER_Write(LOW);
  81              		.loc 1 23 0
  82 003a 0020     		movs	r0, #0
  83 003c FFF7FEFF 		bl	BUZZER_Write
  84              	.LVL4:
  24:InterruptRoutine.c ****             start_stream=1;
  85              		.loc 1 24 0
  86 0040 0122     		movs	r2, #1
  87 0042 214B     		ldr	r3, .L11+4
  88 0044 1A70     		strb	r2, [r3]
  25:InterruptRoutine.c ****             break;
  89              		.loc 1 25 0
ARM GAS  C:\Users\Giovanni\AppData\Local\Temp\ccpKukKf.s 			page 3


  90 0046 08BD     		pop	{r3, pc}
  91              	.L9:
  26:InterruptRoutine.c ****         
  27:InterruptRoutine.c ****         case 'v':
  28:InterruptRoutine.c ****             LED_G_Write(LOW);
  92              		.loc 1 28 0
  93 0048 0020     		movs	r0, #0
  94 004a FFF7FEFF 		bl	LED_G_Write
  95              	.LVL5:
  29:InterruptRoutine.c ****             LED_B_Write(HIGH);
  96              		.loc 1 29 0
  97 004e 0120     		movs	r0, #1
  98 0050 FFF7FEFF 		bl	LED_B_Write
  99              	.LVL6:
  30:InterruptRoutine.c ****             BUZZER_Write(LOW);
 100              		.loc 1 30 0
 101 0054 0020     		movs	r0, #0
 102 0056 FFF7FEFF 		bl	BUZZER_Write
 103              	.LVL7:
  31:InterruptRoutine.c ****             start_stream=0;
 104              		.loc 1 31 0
 105 005a 0022     		movs	r2, #0
 106 005c 1A4B     		ldr	r3, .L11+4
 107 005e 1A70     		strb	r2, [r3]
  32:InterruptRoutine.c ****             break;
 108              		.loc 1 32 0
 109 0060 08BD     		pop	{r3, pc}
 110              	.L3:
  33:InterruptRoutine.c ****             
  34:InterruptRoutine.c ****         case 'b':
  35:InterruptRoutine.c ****             BUZZER_Write(HIGH);
 111              		.loc 1 35 0
 112 0062 0120     		movs	r0, #1
 113 0064 FFF7FEFF 		bl	BUZZER_Write
 114              	.LVL8:
  36:InterruptRoutine.c ****             PWM_LED_Start();
 115              		.loc 1 36 0
 116 0068 FFF7FEFF 		bl	PWM_LED_Start
 117              	.LVL9:
  37:InterruptRoutine.c ****             LED_G_Write(LOW);
 118              		.loc 1 37 0
 119 006c 0020     		movs	r0, #0
 120 006e FFF7FEFF 		bl	LED_G_Write
 121              	.LVL10:
  38:InterruptRoutine.c ****             LED_B_Write(LOW);
 122              		.loc 1 38 0
 123 0072 0020     		movs	r0, #0
 124 0074 FFF7FEFF 		bl	LED_B_Write
 125              	.LVL11:
  39:InterruptRoutine.c ****             break;
 126              		.loc 1 39 0
 127 0078 08BD     		pop	{r3, pc}
 128              	.L8:
  40:InterruptRoutine.c **** 
  41:InterruptRoutine.c ****         case 't':
  42:InterruptRoutine.c ****             LED_B_Write(HIGH);
 129              		.loc 1 42 0
ARM GAS  C:\Users\Giovanni\AppData\Local\Temp\ccpKukKf.s 			page 4


 130 007a 0120     		movs	r0, #1
 131 007c FFF7FEFF 		bl	LED_B_Write
 132              	.LVL12:
  43:InterruptRoutine.c ****             PWM_LED_Stop();
 133              		.loc 1 43 0
 134 0080 FFF7FEFF 		bl	PWM_LED_Stop
 135              	.LVL13:
  44:InterruptRoutine.c ****             BUZZER_Write(LOW);
 136              		.loc 1 44 0
 137 0084 0020     		movs	r0, #0
 138 0086 FFF7FEFF 		bl	BUZZER_Write
 139              	.LVL14:
  45:InterruptRoutine.c ****             LED_G_Write(LOW);
 140              		.loc 1 45 0
 141 008a 0020     		movs	r0, #0
 142 008c FFF7FEFF 		bl	LED_G_Write
 143              	.LVL15:
  46:InterruptRoutine.c ****             break;
 144              		.loc 1 46 0
 145 0090 08BD     		pop	{r3, pc}
 146              	.L6:
  47:InterruptRoutine.c ****             
  48:InterruptRoutine.c ****         case 'o':
  49:InterruptRoutine.c ****             LED_B_Write(LOW);
 147              		.loc 1 49 0
 148 0092 0020     		movs	r0, #0
 149 0094 FFF7FEFF 		bl	LED_B_Write
 150              	.LVL16:
  50:InterruptRoutine.c ****             LED_R_Write(LOW);
 151              		.loc 1 50 0
 152 0098 0020     		movs	r0, #0
 153 009a FFF7FEFF 		bl	LED_R_Write
 154              	.LVL17:
  51:InterruptRoutine.c ****             BUZZER_Write(LOW);
 155              		.loc 1 51 0
 156 009e 0020     		movs	r0, #0
 157 00a0 FFF7FEFF 		bl	BUZZER_Write
 158              	.LVL18:
  52:InterruptRoutine.c ****             LED_G_Write(HIGH);
 159              		.loc 1 52 0
 160 00a4 0120     		movs	r0, #1
 161 00a6 FFF7FEFF 		bl	LED_G_Write
 162              	.LVL19:
  53:InterruptRoutine.c ****             break;
 163              		.loc 1 53 0
 164 00aa 08BD     		pop	{r3, pc}
 165              	.L5:
  54:InterruptRoutine.c ****             
  55:InterruptRoutine.c ****         case 'd':
  56:InterruptRoutine.c ****             PWM_LED_Start();
 166              		.loc 1 56 0
 167 00ac FFF7FEFF 		bl	PWM_LED_Start
 168              	.LVL20:
  57:InterruptRoutine.c ****             LED_G_Write(LOW);
 169              		.loc 1 57 0
 170 00b0 0020     		movs	r0, #0
 171 00b2 FFF7FEFF 		bl	LED_G_Write
ARM GAS  C:\Users\Giovanni\AppData\Local\Temp\ccpKukKf.s 			page 5


 172              	.LVL21:
  58:InterruptRoutine.c ****             LED_B_Write(LOW);
 173              		.loc 1 58 0
 174 00b6 0020     		movs	r0, #0
 175 00b8 FFF7FEFF 		bl	LED_B_Write
 176              	.LVL22:
  59:InterruptRoutine.c ****             BUZZER_Write(LOW);
 177              		.loc 1 59 0
 178 00bc 0020     		movs	r0, #0
 179 00be FFF7FEFF 		bl	BUZZER_Write
 180              	.LVL23:
 181              	.L1:
 182 00c2 08BD     		pop	{r3, pc}
 183              	.L12:
 184              		.align	2
 185              	.L11:
 186 00c4 00000000 		.word	ch_received
 187 00c8 00000000 		.word	start_stream
 188              		.cfi_endproc
 189              	.LFE64:
 190              		.size	Custom_ISR_RX, .-Custom_ISR_RX
 191              		.section	.text.Custom_ISR_Data,"ax",%progbits
 192              		.align	2
 193              		.global	Custom_ISR_Data
 194              		.thumb
 195              		.thumb_func
 196              		.type	Custom_ISR_Data, %function
 197              	Custom_ISR_Data:
 198              	.LFB65:
  60:InterruptRoutine.c ****             break;
  61:InterruptRoutine.c ****                 
  62:InterruptRoutine.c ****     }
  63:InterruptRoutine.c **** }        
  64:InterruptRoutine.c ****         
  65:InterruptRoutine.c **** CY_ISR(Custom_ISR_Data)
  66:InterruptRoutine.c **** {
 199              		.loc 1 66 0
 200              		.cfi_startproc
 201              		@ args = 0, pretend = 0, frame = 0
 202              		@ frame_needed = 0, uses_anonymous_args = 0
 203 0000 10B5     		push	{r4, lr}
 204              		.cfi_def_cfa_offset 8
 205              		.cfi_offset 4, -8
 206              		.cfi_offset 14, -4
  67:InterruptRoutine.c ****     
  68:InterruptRoutine.c ****     ErrorCode error = I2C_Peripheral_UReadRegister(LIS3DH_DEVICE_ADDRESS,LIS3DH_STATUS_REG,&status_
 207              		.loc 1 68 0
 208 0002 174A     		ldr	r2, .L17
 209 0004 2721     		movs	r1, #39
 210 0006 1820     		movs	r0, #24
 211 0008 FFF7FEFF 		bl	I2C_Peripheral_UReadRegister
 212              	.LVL24:
  69:InterruptRoutine.c ****     
  70:InterruptRoutine.c ****     if (error == NO_ERROR)
 213              		.loc 1 70 0
 214 000c 38BB     		cbnz	r0, .L13
  71:InterruptRoutine.c ****     { 
ARM GAS  C:\Users\Giovanni\AppData\Local\Temp\ccpKukKf.s 			page 6


  72:InterruptRoutine.c ****         ZYX_DA = status_reg & (0b00001000); 
 215              		.loc 1 72 0
 216 000e 144B     		ldr	r3, .L17
 217 0010 1A78     		ldrb	r2, [r3]	@ zero_extendqisi2
 218 0012 02F00803 		and	r3, r2, #8
 219 0016 DBB2     		uxtb	r3, r3
 220 0018 1249     		ldr	r1, .L17+4
 221 001a 0B70     		strb	r3, [r1]
  73:InterruptRoutine.c ****         ZYX_OR = status_reg &  (0b10000000);
 222              		.loc 1 73 0
 223 001c 22F07F02 		bic	r2, r2, #127
 224 0020 1149     		ldr	r1, .L17+8
 225 0022 0A70     		strb	r2, [r1]
  74:InterruptRoutine.c ****  
  75:InterruptRoutine.c ****         if(ZYX_DA == LIS3DH_STATUS_REG_ZYX_DA_1)
 226              		.loc 1 75 0
 227 0024 DBB1     		cbz	r3, .L13
  76:InterruptRoutine.c ****         {
  77:InterruptRoutine.c ****             error = I2C_Peripheral_UReadRegister(LIS3DH_DEVICE_ADDRESS,LIS3DH_OUT_Z_L,&Acc_Data[0])
 228              		.loc 1 77 0
 229 0026 114C     		ldr	r4, .L17+12
 230 0028 2246     		mov	r2, r4
 231 002a 2C21     		movs	r1, #44
 232 002c 1820     		movs	r0, #24
 233              	.LVL25:
 234 002e FFF7FEFF 		bl	I2C_Peripheral_UReadRegister
 235              	.LVL26:
  78:InterruptRoutine.c ****             error = I2C_Peripheral_UReadRegister(LIS3DH_DEVICE_ADDRESS,LIS3DH_OUT_Z_H,&Acc_Data[1])
 236              		.loc 1 78 0
 237 0032 621C     		adds	r2, r4, #1
 238 0034 2D21     		movs	r1, #45
 239 0036 1820     		movs	r0, #24
 240 0038 FFF7FEFF 		bl	I2C_Peripheral_UReadRegister
 241              	.LVL27:
  79:InterruptRoutine.c ****             
  80:InterruptRoutine.c ****             if(error == NO_ERROR)
 242              		.loc 1 80 0
 243 003c 60B9     		cbnz	r0, .L15
  81:InterruptRoutine.c ****             {
  82:InterruptRoutine.c ****                 DataBuffer[1]=Acc_Data[0];
 244              		.loc 1 82 0
 245 003e 2178     		ldrb	r1, [r4]	@ zero_extendqisi2
 246 0040 0B4B     		ldr	r3, .L17+16
 247 0042 5970     		strb	r1, [r3, #1]
  83:InterruptRoutine.c ****                 DataBuffer[2]=Acc_Data[1];
 248              		.loc 1 83 0
 249 0044 6278     		ldrb	r2, [r4, #1]	@ zero_extendqisi2
 250 0046 9A70     		strb	r2, [r3, #2]
  84:InterruptRoutine.c ****                 if(start_stream)
 251              		.loc 1 84 0
 252 0048 0A4B     		ldr	r3, .L17+20
 253 004a 1B78     		ldrb	r3, [r3]	@ zero_extendqisi2
 254 004c 3BB1     		cbz	r3, .L13
  85:InterruptRoutine.c ****                 {
  86:InterruptRoutine.c ****                     UART_1_PutArray(DataBuffer,TRANSMIT_DATA_BUFFER_SIZE);
 255              		.loc 1 86 0
 256 004e 0421     		movs	r1, #4
ARM GAS  C:\Users\Giovanni\AppData\Local\Temp\ccpKukKf.s 			page 7


 257 0050 0748     		ldr	r0, .L17+16
 258              	.LVL28:
 259 0052 FFF7FEFF 		bl	UART_1_PutArray
 260              	.LVL29:
 261 0056 10BD     		pop	{r4, pc}
 262              	.LVL30:
 263              	.L15:
  87:InterruptRoutine.c ****                 }
  88:InterruptRoutine.c ****             }
  89:InterruptRoutine.c ****             else
  90:InterruptRoutine.c ****             {
  91:InterruptRoutine.c ****                 UART_1_PutString("Errore");
 264              		.loc 1 91 0
 265 0058 0748     		ldr	r0, .L17+24
 266              	.LVL31:
 267 005a FFF7FEFF 		bl	UART_1_PutString
 268              	.LVL32:
 269              	.L13:
 270 005e 10BD     		pop	{r4, pc}
 271              	.L18:
 272              		.align	2
 273              	.L17:
 274 0060 00000000 		.word	status_reg
 275 0064 00000000 		.word	ZYX_DA
 276 0068 00000000 		.word	ZYX_OR
 277 006c 00000000 		.word	Acc_Data
 278 0070 00000000 		.word	DataBuffer
 279 0074 00000000 		.word	start_stream
 280 0078 00000000 		.word	.LC0
 281              		.cfi_endproc
 282              	.LFE65:
 283              		.size	Custom_ISR_Data, .-Custom_ISR_Data
 284              		.comm	start_stream,1,1
 285              		.comm	ch_received,1,1
 286              		.global	g
 287              		.comm	status_reg,1,1
 288              		.comm	ZYX_OR,1,1
 289              		.comm	ZYX_DA,1,1
 290              		.comm	Acc_Data,2,4
 291              		.comm	OutData,2,2
 292              		.comm	DataBuffer,4,4
 293              		.data
 294              		.align	2
 295              		.type	g, %object
 296              		.size	g, 4
 297              	g:
 298 0000 C3F51C41 		.word	1092416963
 299              		.section	.rodata.str1.4,"aMS",%progbits,1
 300              		.align	2
 301              	.LC0:
 302 0000 4572726F 		.ascii	"Errore\000"
 302      726500
 303              		.text
 304              	.Letext0:
 305              		.file 2 "d:\\programmi\\cypress\\psoc creator\\4.4\\psoc creator\\import\\gnu\\arm\\5.4.1\\arm-non
 306              		.file 3 "d:\\programmi\\cypress\\psoc creator\\4.4\\psoc creator\\import\\gnu\\arm\\5.4.1\\arm-non
 307              		.file 4 "Generated_Source\\PSoC5/cytypes.h"
ARM GAS  C:\Users\Giovanni\AppData\Local\Temp\ccpKukKf.s 			page 8


 308              		.file 5 "ErrorCodes.h"
 309              		.file 6 "Generated_Source\\PSoC5/core_cm3.h"
 310              		.file 7 "InterruptRoutine.h"
 311              		.file 8 "Generated_Source\\PSoC5/UART_1.h"
 312              		.file 9 "Generated_Source\\PSoC5/PWM_LED.h"
 313              		.file 10 "Generated_Source\\PSoC5/LED_G.h"
 314              		.file 11 "Generated_Source\\PSoC5/LED_B.h"
 315              		.file 12 "Generated_Source\\PSoC5/BUZZER.h"
 316              		.file 13 "Generated_Source\\PSoC5/LED_R.h"
 317              		.file 14 "I2C_Interface.h"